; Function Attrs: mustprogress uwtable
define dso_local void @_Z16CanonicalizePathPNSt7__cxx1112basic_stringIcSt11char_traitsIcESaIcEEEPm(ptr noundef %0, ptr noundef writeonly captures(none) %1) local_unnamed_addr #7 {
  %3 = alloca i64, align 8
  call void @llvm.lifetime.start.p0(i64 8, ptr nonnull %3) #32
  %4 = getelementptr inbounds nuw i8, ptr %0, i64 8
  %5 = load i64, ptr %4, align 8, !tbaa !9
  store i64 %5, ptr %3, align 8, !tbaa !14
  %.not = icmp eq i64 %5, 0
  br i1 %.not, label %8, label %6

6:                                                ; preds = %2
  %7 = load ptr, ptr %0, align 8, !tbaa !15
  br label %8

8:                                                ; preds = %6, %2
  %.0 = phi ptr [ %7, %6 ], [ null, %2 ]
  call void @_Z16CanonicalizePathPcPmS0_(ptr noundef %.0, ptr noundef nonnull %3, ptr noundef %1)
  %9 = load i64, ptr %3, align 8, !tbaa !14
  tail call void @_ZNSt7__cxx1112basic_stringIcSt11char_traitsIcESaIcEE6resizeEmc(ptr noundef nonnull align 8 dereferenceable(32) %0, i64 noundef %9, i8 noundef signext 0)
  call void @llvm.lifetime.end.p0(i64 8, ptr nonnull %3) #32
  ret void
}